; Function Attrs: mustprogress nounwind uwtable
define hidden void @_ZN8JVMCIEnv28translate_from_jni_exceptionEP10JavaThreadP11_jthrowablePS_S4_(ptr noundef %0, ptr noundef %1, ptr noundef %2, ptr noundef %3) local_unnamed_addr #0 align 2 {
  %5 = alloca %class.SharedLibraryToHotSpotExceptionTranslation, align 8
  %6 = getelementptr inbounds i8, ptr %5, i64 8
  store ptr %3, ptr %6, align 8
  %7 = getelementptr inbounds i8, ptr %5, i64 16
  store ptr %2, ptr %7, align 8
  store ptr getelementptr inbounds inrange(-16, 16) (i8, ptr @_ZTV42SharedLibraryToHotSpotExceptionTranslation, i64 16), ptr %5, align 8
  %8 = getelementptr inbounds i8, ptr %5, i64 24
  store ptr %1, ptr %8, align 8
  call void @_ZN20ExceptionTranslation4doitEP10JavaThread(ptr noundef nonnull align 8 dereferenceable(24) %5, ptr noundef %0)
  ret void
}